target datalayout = "e-m:e-p270:32:32-p271:32:32-p272:64:64-i64:64-i128:128-f80:128-n8:16:32:64-S128"
target triple = "x86_64-pc-linux-gnu"

@.str.11 = private unnamed_addr constant [9 x i8] c"fnctl(2)\00", align 1

; Function Attrs: nounwind sspstrong uwtable
define void @rsock_make_fd_nonblock(i32 noundef %0) #0 {
  %2 = alloca i32, align 4
  %3 = alloca i32, align 4
  %4 = alloca i32, align 4
  %5 = alloca i32, align 4
  store i32 %0, ptr %2, align 4, !tbaa !11
  call void @llvm.lifetime.start.p0(i64 4, ptr %3) #21
  %6 = load i32, ptr %2, align 4, !tbaa !11
  %7 = call i32 (i32, i32, ...) @fcntl(i32 noundef %6, i32 noundef 3)
  store i32 %7, ptr %3, align 4, !tbaa !11
  %8 = load i32, ptr %3, align 4, !tbaa !11
  %9 = icmp eq i32 %8, -1
  br i1 %9, label %10, label %17

10:                                               ; preds = %1
  br label %11

11:                                               ; preds = %10
  call void @llvm.lifetime.start.p0(i64 4, ptr %4) #21
  %12 = call ptr @rb_errno_ptr()
  %13 = load i32, ptr %12, align 4, !tbaa !11
  store i32 %13, ptr %4, align 4, !tbaa !11
  %14 = load i32, ptr %4, align 4, !tbaa !11
  call void @rb_syserr_fail(i32 noundef %14, ptr noundef @.str.11) #22
  unreachable

15:                                               ; No predecessors!
  br label %16

16:                                               ; preds = %15
  br label %17

17:                                               ; preds = %16, %1
  %18 = load i32, ptr %3, align 4, !tbaa !11
  %19 = or i32 %18, 2048
  store i32 %19, ptr %3, align 4, !tbaa !11
  %20 = load i32, ptr %2, align 4, !tbaa !11
  %21 = load i32, ptr %3, align 4, !tbaa !11
  %22 = call i32 (i32, i32, ...) @fcntl(i32 noundef %20, i32 noundef 4, i32 noundef %21)
  %23 = icmp eq i32 %22, -1
  br i1 %23, label %24, label %31

24:                                               ; preds = %17
  br label %25

25:                                               ; preds = %24
  call void @llvm.lifetime.start.p0(i64 4, ptr %5) #21
  %26 = call ptr @rb_errno_ptr()
  %27 = load i32, ptr %26, align 4, !tbaa !11
  store i32 %27, ptr %5, align 4, !tbaa !11
  %28 = load i32, ptr %5, align 4, !tbaa !11
  call void @rb_syserr_fail(i32 noundef %28, ptr noundef @.str.11) #22
  unreachable

29:                                               ; No predecessors!
  br label %30

30:                                               ; preds = %29
  br label %31

31:                                               ; preds = %30, %17
  call void @llvm.lifetime.end.p0(i64 4, ptr %3) #21
  ret void
}