; Function Attrs: nounwind sspstrong uwtable
define void @rsock_make_fd_nonblock(i32 noundef %0) local_unnamed_addr #0 {
  %2 = tail call i32 (i32, i32, ...) @fcntl(i32 noundef %0, i32 noundef 3) #10
  %3 = icmp eq i32 %2, -1
  br i1 %3, label %4, label %7

4:                                                ; preds = %1
  %5 = tail call ptr @rb_errno_ptr() #10
  %6 = load i32, ptr %5, align 4, !tbaa !6
  tail call void @rb_syserr_fail(i32 noundef %6, ptr noundef nonnull @.str.11) #11
  unreachable

7:                                                ; preds = %1
  %8 = or i32 %2, 2048
  %9 = tail call i32 (i32, i32, ...) @fcntl(i32 noundef %0, i32 noundef 4, i32 noundef %8) #10
  %10 = icmp eq i32 %9, -1
  br i1 %10, label %11, label %14

11:                                               ; preds = %7
  %12 = tail call ptr @rb_errno_ptr() #10
  %13 = load i32, ptr %12, align 4, !tbaa !6
  tail call void @rb_syserr_fail(i32 noundef %13, ptr noundef nonnull @.str.11) #11
  unreachable

14:                                               ; preds = %7
  ret void
}